; Function Attrs: inlinehint nounwind sspstrong uwtable
define internal fastcc i64 @f_eqeq_p(i64 noundef %0, i64 noundef %1) unnamed_addr #5 {
  %3 = and i64 %0, 1
  %4 = and i64 %3, %1
  %or.cond.not = icmp eq i64 %4, 0
  br i1 %or.cond.not, label %8, label %5

5:                                                ; preds = %2
  %.unshifted = xor i64 %1, %0
  %6 = icmp ult i64 %.unshifted, 2
  %7 = select i1 %6, i64 20, i64 0
  br label %11

8:                                                ; preds = %2
  %9 = load i64, ptr @id_eqeq_p, align 8, !tbaa !6
  %10 = tail call i64 (i64, i64, i32, ...) @rb_funcall(i64 noundef %0, i64 noundef %9, i32 noundef 1, i64 noundef %1) #21
  br label %11

11:                                               ; preds = %8, %5
  %.0 = phi i64 [ %7, %5 ], [ %10, %8 ]
  ret i64 %.0
}